target datalayout = "e-m:e-p270:32:32-p271:32:32-p272:64:64-i64:64-i128:128-f80:128-n8:16:32:64-S128"
target triple = "x86_64-pc-linux-gnu"

%struct.Res_Win_t_ = type { ptr, i32, i32, i32, i32, i32, i32, i32, i32, ptr, ptr, ptr, ptr, ptr, ptr }
%struct.Vec_Ptr_t_ = type { i32, i32, ptr }
%struct.Abc_Obj_t_ = type { ptr, ptr, i32, i32, %struct.Vec_Int_t_, %struct.Vec_Int_t_, %union.anon, %union.anon.0 }
%struct.Vec_Int_t_ = type { i32, i32, ptr }
%union.anon = type { ptr }
%union.anon.0 = type { ptr }
%struct.Abc_Ntk_t_ = type { i32, i32, ptr, ptr, ptr, ptr, ptr, ptr, ptr, ptr, ptr, ptr, ptr, [11 x i32], i32, i32, i32, i32, ptr, i32, ptr, ptr, i32, i32, i32, double, i32, %struct.Vec_Int_t_, ptr, ptr, ptr, ptr, ptr, float, i32, ptr, ptr, ptr, ptr, ptr, ptr, ptr, ptr, ptr, ptr, ptr, ptr, ptr, ptr, ptr, ptr, ptr, ptr, ptr, ptr, ptr }

; Function Attrs: nounwind uwtable
define internal void @Vec_IntWriteEntry(ptr noundef %0, i32 noundef %1, i32 noundef %2) #0 {
  %4 = alloca ptr, align 8
  %5 = alloca i32, align 4
  %6 = alloca i32, align 4
  store ptr %0, ptr %4, align 8
  store i32 %1, ptr %5, align 4
  store i32 %2, ptr %6, align 4
  %7 = load i32, ptr %6, align 4
  %8 = load ptr, ptr %4, align 8
  %9 = getelementptr inbounds %struct.Vec_Int_t_, ptr %8, i32 0, i32 2
  %10 = load ptr, ptr %9, align 8
  %11 = load i32, ptr %5, align 4
  %12 = sext i32 %11 to i64
  %13 = getelementptr inbounds i32, ptr %10, i64 %12
  store i32 %7, ptr %13, align 4
  ret void
}

; Function Attrs: nounwind uwtable
define internal void @Vec_IntSetEntry(ptr noundef %0, i32 noundef %1, i32 noundef %2) #0 {
  %4 = alloca ptr, align 8
  %5 = alloca i32, align 4
  %6 = alloca i32, align 4
  store ptr %0, ptr %4, align 8
  store i32 %1, ptr %5, align 4
  store i32 %2, ptr %6, align 4
  %7 = load ptr, ptr %4, align 8
  %8 = load i32, ptr %5, align 4
  %9 = add nsw i32 %8, 1
  call void @Vec_IntFillExtra(ptr noundef %7, i32 noundef %9, i32 noundef 0)
  %10 = load ptr, ptr %4, align 8
  %11 = load i32, ptr %5, align 4
  %12 = load i32, ptr %6, align 4
  call void @Vec_IntWriteEntry(ptr noundef %10, i32 noundef %11, i32 noundef %12)
  ret void
}

; Function Attrs: nounwind uwtable
define internal i32 @Abc_ObjId(ptr noundef %0) #0 {
  %2 = alloca ptr, align 8
  store ptr %0, ptr %2, align 8
  %3 = load ptr, ptr %2, align 8
  %4 = getelementptr inbounds %struct.Abc_Obj_t_, ptr %3, i32 0, i32 2
  %5 = load i32, ptr %4, align 8
  ret i32 %5
}

; Function Attrs: nounwind uwtable
define internal void @Vec_IntGrow(ptr noundef %0, i32 noundef %1) #0 {
  %3 = alloca ptr, align 8
  %4 = alloca i32, align 4
  store ptr %0, ptr %3, align 8
  store i32 %1, ptr %4, align 4
  %5 = load ptr, ptr %3, align 8
  %6 = getelementptr inbounds %struct.Vec_Int_t_, ptr %5, i32 0, i32 0
  %7 = load i32, ptr %6, align 8
  %8 = load i32, ptr %4, align 4
  %9 = icmp sge i32 %7, %8
  br i1 %9, label %10, label %11

10:                                               ; preds = %2
  br label %36

11:                                               ; preds = %2
  %12 = load ptr, ptr %3, align 8
  %13 = getelementptr inbounds %struct.Vec_Int_t_, ptr %12, i32 0, i32 2
  %14 = load ptr, ptr %13, align 8
  %15 = icmp ne ptr %14, null
  br i1 %15, label %16, label %24

16:                                               ; preds = %11
  %17 = load ptr, ptr %3, align 8
  %18 = getelementptr inbounds %struct.Vec_Int_t_, ptr %17, i32 0, i32 2
  %19 = load ptr, ptr %18, align 8
  %20 = load i32, ptr %4, align 4
  %21 = sext i32 %20 to i64
  %22 = mul i64 4, %21
  %23 = call ptr @realloc(ptr noundef %19, i64 noundef %22) #7
  br label %29

24:                                               ; preds = %11
  %25 = load i32, ptr %4, align 4
  %26 = sext i32 %25 to i64
  %27 = mul i64 4, %26
  %28 = call noalias ptr @malloc(i64 noundef %27) #5
  br label %29

29:                                               ; preds = %24, %16
  %30 = phi ptr [ %23, %16 ], [ %28, %24 ]
  %31 = load ptr, ptr %3, align 8
  %32 = getelementptr inbounds %struct.Vec_Int_t_, ptr %31, i32 0, i32 2
  store ptr %30, ptr %32, align 8
  %33 = load i32, ptr %4, align 4
  %34 = load ptr, ptr %3, align 8
  %35 = getelementptr inbounds %struct.Vec_Int_t_, ptr %34, i32 0, i32 0
  store i32 %33, ptr %35, align 8
  br label %36

36:                                               ; preds = %29, %10
  ret void
}

; Function Attrs: nounwind uwtable
define internal void @Abc_NodeSetTravId(ptr noundef %0, i32 noundef %1) #0 {
  %3 = alloca ptr, align 8
  %4 = alloca i32, align 4
  store ptr %0, ptr %3, align 8
  store i32 %1, ptr %4, align 4
  %5 = load ptr, ptr %3, align 8
  %6 = call ptr @Abc_ObjNtk(ptr noundef %5)
  %7 = getelementptr inbounds %struct.Abc_Ntk_t_, ptr %6, i32 0, i32 27
  %8 = load ptr, ptr %3, align 8
  %9 = call i32 @Abc_ObjId(ptr noundef %8)
  %10 = load i32, ptr %4, align 4
  call void @Vec_IntSetEntry(ptr noundef %7, i32 noundef %9, i32 noundef %10)
  ret void
}

; Function Attrs: nounwind uwtable
define internal ptr @Abc_ObjNtk(ptr noundef %0) #0 {
  %2 = alloca ptr, align 8
  store ptr %0, ptr %2, align 8
  %3 = load ptr, ptr %2, align 8
  %4 = getelementptr inbounds %struct.Abc_Obj_t_, ptr %3, i32 0, i32 0
  %5 = load ptr, ptr %4, align 8
  ret ptr %5
}

; Function Attrs: nounwind uwtable
define internal void @Vec_IntFill(ptr noundef %0, i32 noundef %1, i32 noundef %2) #0 {
  %4 = alloca ptr, align 8
  %5 = alloca i32, align 4
  %6 = alloca i32, align 4
  %7 = alloca i32, align 4
  store ptr %0, ptr %4, align 8
  store i32 %1, ptr %5, align 4
  store i32 %2, ptr %6, align 4
  %8 = load ptr, ptr %4, align 8
  %9 = load i32, ptr %5, align 4
  call void @Vec_IntGrow(ptr noundef %8, i32 noundef %9)
  store i32 0, ptr %7, align 4
  br label %10

10:                                               ; preds = %22, %3
  %11 = load i32, ptr %7, align 4
  %12 = load i32, ptr %5, align 4
  %13 = icmp slt i32 %11, %12
  br i1 %13, label %14, label %25

14:                                               ; preds = %10
  %15 = load i32, ptr %6, align 4
  %16 = load ptr, ptr %4, align 8
  %17 = getelementptr inbounds %struct.Vec_Int_t_, ptr %16, i32 0, i32 2
  %18 = load ptr, ptr %17, align 8
  %19 = load i32, ptr %7, align 4
  %20 = sext i32 %19 to i64
  %21 = getelementptr inbounds i32, ptr %18, i64 %20
  store i32 %15, ptr %21, align 4
  br label %22

22:                                               ; preds = %14
  %23 = load i32, ptr %7, align 4
  %24 = add nsw i32 %23, 1
  store i32 %24, ptr %7, align 4
  br label %10, !llvm.loop !27

25:                                               ; preds = %10
  %26 = load i32, ptr %5, align 4
  %27 = load ptr, ptr %4, align 8
  %28 = getelementptr inbounds %struct.Vec_Int_t_, ptr %27, i32 0, i32 1
  store i32 %26, ptr %28, align 4
  ret void
}

; Function Attrs: nounwind uwtable
define internal i32 @Abc_NtkObjNumMax(ptr noundef %0) #0 {
  %2 = alloca ptr, align 8
  store ptr %0, ptr %2, align 8
  %3 = load ptr, ptr %2, align 8
  %4 = getelementptr inbounds %struct.Abc_Ntk_t_, ptr %3, i32 0, i32 5
  %5 = load ptr, ptr %4, align 8
  %6 = call i32 @Vec_PtrSize(ptr noundef %5)
  ret i32 %6
}

; Function Attrs: nounwind uwtable
define internal void @Vec_PtrClear(ptr noundef %0) #0 {
  %2 = alloca ptr, align 8
  store ptr %0, ptr %2, align 8
  %3 = load ptr, ptr %2, align 8
  %4 = getelementptr inbounds %struct.Vec_Ptr_t_, ptr %3, i32 0, i32 1
  store i32 0, ptr %4, align 4
  ret void
}

; Function Attrs: nounwind uwtable
define internal void @Abc_NodeSetTravIdCurrent(ptr noundef %0) #0 {
  %2 = alloca ptr, align 8
  store ptr %0, ptr %2, align 8
  %3 = load ptr, ptr %2, align 8
  %4 = load ptr, ptr %2, align 8
  %5 = call ptr @Abc_ObjNtk(ptr noundef %4)
  %6 = getelementptr inbounds %struct.Abc_Ntk_t_, ptr %5, i32 0, i32 26
  %7 = load i32, ptr %6, align 8
  call void @Abc_NodeSetTravId(ptr noundef %3, i32 noundef %7)
  ret void
}

; Function Attrs: nounwind uwtable
define internal ptr @Vec_PtrEntry(ptr noundef %0, i32 noundef %1) #0 {
  %3 = alloca ptr, align 8
  %4 = alloca i32, align 4
  store ptr %0, ptr %3, align 8
  store i32 %1, ptr %4, align 4
  %5 = load ptr, ptr %3, align 8
  %6 = getelementptr inbounds %struct.Vec_Ptr_t_, ptr %5, i32 0, i32 2
  %7 = load ptr, ptr %6, align 8
  %8 = load i32, ptr %4, align 4
  %9 = sext i32 %8 to i64
  %10 = getelementptr inbounds ptr, ptr %7, i64 %9
  %11 = load ptr, ptr %10, align 8
  ret ptr %11
}

; Function Attrs: nounwind uwtable
define internal i32 @Vec_PtrSize(ptr noundef %0) #0 {
  %2 = alloca ptr, align 8
  store ptr %0, ptr %2, align 8
  %3 = load ptr, ptr %2, align 8
  %4 = getelementptr inbounds %struct.Vec_Ptr_t_, ptr %3, i32 0, i32 1
  %5 = load i32, ptr %4, align 4
  ret i32 %5
}

; Function Attrs: nounwind uwtable
define internal void @Abc_NtkIncrementTravId(ptr noundef %0) #0 {
  %2 = alloca ptr, align 8
  store ptr %0, ptr %2, align 8
  %3 = load ptr, ptr %2, align 8
  %4 = getelementptr inbounds %struct.Abc_Ntk_t_, ptr %3, i32 0, i32 27
  %5 = getelementptr inbounds %struct.Vec_Int_t_, ptr %4, i32 0, i32 2
  %6 = load ptr, ptr %5, align 8
  %7 = icmp ne ptr %6, null
  br i1 %7, label %14, label %8

8:                                                ; preds = %1
  %9 = load ptr, ptr %2, align 8
  %10 = getelementptr inbounds %struct.Abc_Ntk_t_, ptr %9, i32 0, i32 27
  %11 = load ptr, ptr %2, align 8
  %12 = call i32 @Abc_NtkObjNumMax(ptr noundef %11)
  %13 = add nsw i32 %12, 500
  call void @Vec_IntFill(ptr noundef %10, i32 noundef %13, i32 noundef 0)
  br label %14

14:                                               ; preds = %8, %1
  %15 = load ptr, ptr %2, align 8
  %16 = getelementptr inbounds %struct.Abc_Ntk_t_, ptr %15, i32 0, i32 26
  %17 = load i32, ptr %16, align 8
  %18 = add nsw i32 %17, 1
  store i32 %18, ptr %16, align 8
  ret void
}

; Function Attrs: nounwind uwtable
define void @Res_WinAddMissing(ptr noundef %0) #0 {
  %2 = alloca ptr, align 8
  %3 = alloca ptr, align 8
  %4 = alloca i32, align 4
  store ptr %0, ptr %2, align 8
  %5 = load ptr, ptr %2, align 8
  %6 = getelementptr inbounds %struct.Res_Win_t_, ptr %5, i32 0, i32 0
  %7 = load ptr, ptr %6, align 8
  %8 = getelementptr inbounds %struct.Abc_Obj_t_, ptr %7, i32 0, i32 0
  %9 = load ptr, ptr %8, align 8
  call void @Abc_NtkIncrementTravId(ptr noundef %9)
  store i32 0, ptr %4, align 4
  br label %10

10:                                               ; preds = %27, %1
  %11 = load i32, ptr %4, align 4
  %12 = load ptr, ptr %2, align 8
  %13 = getelementptr inbounds %struct.Res_Win_t_, ptr %12, i32 0, i32 10
  %14 = load ptr, ptr %13, align 8
  %15 = call i32 @Vec_PtrSize(ptr noundef %14)
  %16 = icmp slt i32 %11, %15
  br i1 %16, label %17, label %23

17:                                               ; preds = %10
  %18 = load ptr, ptr %2, align 8
  %19 = getelementptr inbounds %struct.Res_Win_t_, ptr %18, i32 0, i32 10
  %20 = load ptr, ptr %19, align 8
  %21 = load i32, ptr %4, align 4
  %22 = call ptr @Vec_PtrEntry(ptr noundef %20, i32 noundef %21)
  store ptr %22, ptr %3, align 8
  br label %23

23:                                               ; preds = %17, %10
  %24 = phi i1 [ false, %10 ], [ true, %17 ]
  br i1 %24, label %25, label %30

25:                                               ; preds = %23
  %26 = load ptr, ptr %3, align 8
  call void @Abc_NodeSetTravIdCurrent(ptr noundef %26)
  br label %27

27:                                               ; preds = %25
  %28 = load i32, ptr %4, align 4
  %29 = add nsw i32 %28, 1
  store i32 %29, ptr %4, align 4
  br label %10, !llvm.loop !24

30:                                               ; preds = %23
  store i32 0, ptr %4, align 4
  br label %31

31:                                               ; preds = %48, %30
  %32 = load i32, ptr %4, align 4
  %33 = load ptr, ptr %2, align 8
  %34 = getelementptr inbounds %struct.Res_Win_t_, ptr %33, i32 0, i32 12
  %35 = load ptr, ptr %34, align 8
  %36 = call i32 @Vec_PtrSize(ptr noundef %35)
  %37 = icmp slt i32 %32, %36
  br i1 %37, label %38, label %44

38:                                               ; preds = %31
  %39 = load ptr, ptr %2, align 8
  %40 = getelementptr inbounds %struct.Res_Win_t_, ptr %39, i32 0, i32 12
  %41 = load ptr, ptr %40, align 8
  %42 = load i32, ptr %4, align 4
  %43 = call ptr @Vec_PtrEntry(ptr noundef %41, i32 noundef %42)
  store ptr %43, ptr %3, align 8
  br label %44

44:                                               ; preds = %38, %31
  %45 = phi i1 [ false, %31 ], [ true, %38 ]
  br i1 %45, label %46, label %51

46:                                               ; preds = %44
  %47 = load ptr, ptr %3, align 8
  call void @Abc_NodeSetTravIdCurrent(ptr noundef %47)
  br label %48

48:                                               ; preds = %46
  %49 = load i32, ptr %4, align 4
  %50 = add nsw i32 %49, 1
  store i32 %50, ptr %4, align 4
  br label %31, !llvm.loop !25

51:                                               ; preds = %44
  %52 = load ptr, ptr %2, align 8
  %53 = getelementptr inbounds %struct.Res_Win_t_, ptr %52, i32 0, i32 11
  %54 = load ptr, ptr %53, align 8
  call void @Vec_PtrClear(ptr noundef %54)
  store i32 0, ptr %4, align 4
  br label %55

55:                                               ; preds = %76, %51
  %56 = load i32, ptr %4, align 4
  %57 = load ptr, ptr %2, align 8
  %58 = getelementptr inbounds %struct.Res_Win_t_, ptr %57, i32 0, i32 9
  %59 = load ptr, ptr %58, align 8
  %60 = call i32 @Vec_PtrSize(ptr noundef %59)
  %61 = icmp slt i32 %56, %60
  br i1 %61, label %62, label %68

62:                                               ; preds = %55
  %63 = load ptr, ptr %2, align 8
  %64 = getelementptr inbounds %struct.Res_Win_t_, ptr %63, i32 0, i32 9
  %65 = load ptr, ptr %64, align 8
  %66 = load i32, ptr %4, align 4
  %67 = call ptr @Vec_PtrEntry(ptr noundef %65, i32 noundef %66)
  store ptr %67, ptr %3, align 8
  br label %68

68:                                               ; preds = %62, %55
  %69 = phi i1 [ false, %55 ], [ true, %62 ]
  br i1 %69, label %70, label %79

70:                                               ; preds = %68
  %71 = load ptr, ptr %2, align 8
  %72 = load ptr, ptr %3, align 8
  %73 = load ptr, ptr %2, align 8
  %74 = getelementptr inbounds %struct.Res_Win_t_, ptr %73, i32 0, i32 7
  %75 = load i32, ptr %74, align 8
  call void @Res_WinAddMissing_rec(ptr noundef %71, ptr noundef %72, i32 noundef %75)
  br label %76

76:                                               ; preds = %70
  %77 = load i32, ptr %4, align 4
  %78 = add nsw i32 %77, 1
  store i32 %78, ptr %4, align 4
  br label %55, !llvm.loop !26

79:                                               ; preds = %68
  ret void
}