; Function Attrs: nounwind uwtable
define void @Res_WinAddMissing(ptr noundef readonly captures(none) %0) local_unnamed_addr #2 {
  %2 = load ptr, ptr %0, align 8
  %3 = load ptr, ptr %2, align 8
  %4 = getelementptr inbounds nuw i8, ptr %3, i64 232
  %5 = load ptr, ptr %4, align 8
  %.not.i = icmp eq ptr %5, null
  br i1 %.not.i, label %6, label %Abc_NtkIncrementTravId.exit

6:                                                ; preds = %1
  %7 = getelementptr inbounds nuw i8, ptr %3, i64 224
  %8 = getelementptr i8, ptr %3, i64 32
  %.val.i = load ptr, ptr %8, align 8
  %9 = getelementptr i8, ptr %.val.i, i64 4
  %.val.val.i = load i32, ptr %9, align 4
  %10 = add nsw i32 %.val.val.i, 500
  %11 = load i32, ptr %7, align 8
  %.not.i.i.i = icmp slt i32 %11, %10
  br i1 %.not.i.i.i, label %12, label %Vec_IntGrow.exit.i.i

12:                                               ; preds = %6
  %13 = sext i32 %10 to i64
  %14 = shl nsw i64 %13, 2
  %15 = tail call noalias ptr @malloc(i64 noundef %14) #8
  store ptr %15, ptr %4, align 8
  store i32 %10, ptr %7, align 8
  br label %Vec_IntGrow.exit.i.i

Vec_IntGrow.exit.i.i:                             ; preds = %12, %6
  %16 = icmp sgt i32 %.val.val.i, -500
  br i1 %16, label %.lr.ph.i.i, label %Vec_IntFill.exit.i

.lr.ph.i.i:                                       ; preds = %Vec_IntGrow.exit.i.i
  %wide.trip.count.i.i = zext nneg i32 %10 to i64
  br label %17

17:                                               ; preds = %17, %.lr.ph.i.i
  %indvars.iv.i.i = phi i64 [ 0, %.lr.ph.i.i ], [ %indvars.iv.next.i.i, %17 ]
  %18 = load ptr, ptr %4, align 8
  %19 = getelementptr inbounds nuw i32, ptr %18, i64 %indvars.iv.i.i
  store i32 0, ptr %19, align 4
  %indvars.iv.next.i.i = add nuw nsw i64 %indvars.iv.i.i, 1
  %exitcond.not.i.i = icmp eq i64 %indvars.iv.next.i.i, %wide.trip.count.i.i
  br i1 %exitcond.not.i.i, label %Vec_IntFill.exit.i, label %17, !llvm.loop !8

Vec_IntFill.exit.i:                               ; preds = %17, %Vec_IntGrow.exit.i.i
  %20 = getelementptr inbounds nuw i8, ptr %3, i64 228
  store i32 %10, ptr %20, align 4
  br label %Abc_NtkIncrementTravId.exit

Abc_NtkIncrementTravId.exit:                      ; preds = %1, %Vec_IntFill.exit.i
  %21 = getelementptr inbounds nuw i8, ptr %3, i64 216
  %22 = load i32, ptr %21, align 8
  %23 = add nsw i32 %22, 1
  store i32 %23, ptr %21, align 8
  %24 = getelementptr inbounds nuw i8, ptr %0, i64 48
  %25 = load ptr, ptr %24, align 8
  %26 = getelementptr i8, ptr %25, i64 4
  %.val2635 = load i32, ptr %26, align 4
  %27 = icmp sgt i32 %.val2635, 0
  br i1 %27, label %.lr.ph, label %.critedge.preheader

.critedge.preheader:                              ; preds = %.lr.ph, %Abc_NtkIncrementTravId.exit
  %28 = getelementptr inbounds nuw i8, ptr %0, i64 64
  %29 = load ptr, ptr %28, align 8
  %30 = getelementptr i8, ptr %29, i64 4
  %.val2537 = load i32, ptr %30, align 4
  %31 = icmp sgt i32 %.val2537, 0
  br i1 %31, label %.critedge, label %.critedge2

.lr.ph:                                           ; preds = %Abc_NtkIncrementTravId.exit, %.lr.ph
  %indvars.iv = phi i64 [ %indvars.iv.next, %.lr.ph ], [ 0, %Abc_NtkIncrementTravId.exit ]
  %32 = phi ptr [ %44, %.lr.ph ], [ %25, %Abc_NtkIncrementTravId.exit ]
  %33 = getelementptr i8, ptr %32, i64 8
  %.val33 = load ptr, ptr %33, align 8
  %34 = getelementptr inbounds nuw ptr, ptr %.val33, i64 %indvars.iv
  %35 = load ptr, ptr %34, align 8
  %.val29 = load ptr, ptr %35, align 8
  %36 = getelementptr i8, ptr %35, i64 16
  %.val30 = load i32, ptr %36, align 8
  %37 = getelementptr inbounds nuw i8, ptr %.val29, i64 216
  %38 = load i32, ptr %37, align 8
  %39 = getelementptr inbounds nuw i8, ptr %.val29, i64 224
  %40 = add nsw i32 %.val30, 1
  tail call fastcc void @Vec_IntFillExtra(ptr noundef nonnull %39, i32 noundef %40)
  %41 = getelementptr i8, ptr %.val29, i64 232
  %.val.i.i.i = load ptr, ptr %41, align 8
  %42 = sext i32 %.val30 to i64
  %43 = getelementptr inbounds i32, ptr %.val.i.i.i, i64 %42
  store i32 %38, ptr %43, align 4
  %indvars.iv.next = add nuw nsw i64 %indvars.iv, 1
  %44 = load ptr, ptr %24, align 8
  %45 = getelementptr i8, ptr %44, i64 4
  %.val26 = load i32, ptr %45, align 4
  %46 = sext i32 %.val26 to i64
  %47 = icmp slt i64 %indvars.iv.next, %46
  br i1 %47, label %.lr.ph, label %.critedge.preheader, !llvm.loop !26

.critedge:                                        ; preds = %.critedge.preheader, %.critedge
  %indvars.iv45 = phi i64 [ %indvars.iv.next46, %.critedge ], [ 0, %.critedge.preheader ]
  %48 = phi ptr [ %60, %.critedge ], [ %29, %.critedge.preheader ]
  %49 = getelementptr i8, ptr %48, i64 8
  %.val32 = load ptr, ptr %49, align 8
  %50 = getelementptr inbounds nuw ptr, ptr %.val32, i64 %indvars.iv45
  %51 = load ptr, ptr %50, align 8
  %.val27 = load ptr, ptr %51, align 8
  %52 = getelementptr i8, ptr %51, i64 16
  %.val28 = load i32, ptr %52, align 8
  %53 = getelementptr inbounds nuw i8, ptr %.val27, i64 216
  %54 = load i32, ptr %53, align 8
  %55 = getelementptr inbounds nuw i8, ptr %.val27, i64 224
  %56 = add nsw i32 %.val28, 1
  tail call fastcc void @Vec_IntFillExtra(ptr noundef nonnull %55, i32 noundef %56)
  %57 = getelementptr i8, ptr %.val27, i64 232
  %.val.i.i.i34 = load ptr, ptr %57, align 8
  %58 = sext i32 %.val28 to i64
  %59 = getelementptr inbounds i32, ptr %.val.i.i.i34, i64 %58
  store i32 %54, ptr %59, align 4
  %indvars.iv.next46 = add nuw nsw i64 %indvars.iv45, 1
  %60 = load ptr, ptr %28, align 8
  %61 = getelementptr i8, ptr %60, i64 4
  %.val25 = load i32, ptr %61, align 4
  %62 = sext i32 %.val25 to i64
  %63 = icmp slt i64 %indvars.iv.next46, %62
  br i1 %63, label %.critedge, label %.critedge2, !llvm.loop !27

.critedge2:                                       ; preds = %.critedge, %.critedge.preheader
  %64 = getelementptr inbounds nuw i8, ptr %0, i64 56
  %65 = load ptr, ptr %64, align 8
  %66 = getelementptr inbounds nuw i8, ptr %65, i64 4
  store i32 0, ptr %66, align 4
  %67 = getelementptr inbounds nuw i8, ptr %0, i64 40
  %68 = load ptr, ptr %67, align 8
  %69 = getelementptr i8, ptr %68, i64 4
  %.val40 = load i32, ptr %69, align 4
  %70 = icmp sgt i32 %.val40, 0
  br i1 %70, label %.lr.ph42, label %.critedge4

.lr.ph42:                                         ; preds = %.critedge2
  %71 = getelementptr inbounds nuw i8, ptr %0, i64 32
  br label %72

72:                                               ; preds = %.lr.ph42, %72
  %indvars.iv48 = phi i64 [ 0, %.lr.ph42 ], [ %indvars.iv.next49, %72 ]
  %73 = phi ptr [ %68, %.lr.ph42 ], [ %78, %72 ]
  %74 = getelementptr i8, ptr %73, i64 8
  %.val31 = load ptr, ptr %74, align 8
  %75 = getelementptr inbounds nuw ptr, ptr %.val31, i64 %indvars.iv48
  %76 = load ptr, ptr %75, align 8
  %77 = load i32, ptr %71, align 8
  tail call void @Res_WinAddMissing_rec(ptr noundef nonnull %0, ptr noundef %76, i32 noundef %77)
  %indvars.iv.next49 = add nuw nsw i64 %indvars.iv48, 1
  %78 = load ptr, ptr %67, align 8
  %79 = getelementptr i8, ptr %78, i64 4
  %.val = load i32, ptr %79, align 4
  %80 = sext i32 %.val to i64
  %81 = icmp slt i64 %indvars.iv.next49, %80
  br i1 %81, label %72, label %.critedge4, !llvm.loop !28

.critedge4:                                       ; preds = %72, %.critedge2
  ret void
}